; Function Attrs: mustprogress uwtable
define noundef i32 @_ZN4lean2ir8run_mainERKNS_16elab_environmentERKNS_7optionsEiPPc(ptr noundef nonnull align 8 dereferenceable(8) %0, ptr noundef nonnull align 8 dereferenceable(8) %1, i32 noundef %2, ptr noundef %3) local_unnamed_addr #0 personality ptr @__gxx_personality_v0 {
  %5 = alloca %"class.lean::name", align 8
  %6 = alloca i32, align 4
  %7 = alloca ptr, align 8
  %8 = alloca %"class.lean::name", align 8
  %9 = alloca %"class.std::function.2", align 8
  store i32 %2, ptr %6, align 4, !tbaa !38
  store ptr %3, ptr %7, align 8, !tbaa !87
  call void @llvm.lifetime.start.p0(i64 8, ptr nonnull %8) #24
  call void @llvm.lifetime.start.p0(i64 8, ptr nonnull %5) #24
  store ptr inttoptr (i64 1 to ptr), ptr %5, align 8, !tbaa !6
  invoke void @_ZN4lean4nameC2ERKS0_PKc(ptr noundef nonnull align 8 dereferenceable(8) %8, ptr noundef nonnull align 8 dereferenceable(8) %5, ptr noundef nonnull @.str.5)
          to label %10 unwind label %24

10:                                               ; preds = %4
  %11 = load ptr, ptr %5, align 8, !tbaa !6
  %12 = ptrtoint ptr %11 to i64
  %13 = and i64 %12, 1
  %.not.i.i.i = icmp eq i64 %13, 0
  br i1 %.not.i.i.i, label %14, label %_ZN4lean4nameC2EPKc.exit

14:                                               ; preds = %10
  %15 = load i32, ptr %11, align 4, !tbaa !12
  %16 = icmp sgt i32 %15, 1
  br i1 %16, label %17, label %19, !prof !15

17:                                               ; preds = %14
  %18 = add nsw i32 %15, -1
  store i32 %18, ptr %11, align 4, !tbaa !12
  br label %_ZN4lean4nameC2EPKc.exit

19:                                               ; preds = %14
  %.not.i.i.i.i = icmp eq i32 %15, 0
  br i1 %.not.i.i.i.i, label %_ZN4lean4nameC2EPKc.exit, label %20

20:                                               ; preds = %19
  invoke void @lean_dec_ref_cold(ptr noundef nonnull %11)
          to label %_ZN4lean4nameC2EPKc.exit unwind label %21

21:                                               ; preds = %20
  %22 = landingpad { ptr, i32 }
          catch ptr null
  %23 = extractvalue { ptr, i32 } %22, 0
  call void @__clang_call_terminate(ptr %23) #26
  unreachable

common.resume:                                    ; preds = %_ZNSt14_Function_baseD2Ev.exit5, %24
  %common.resume.op = phi { ptr, i32 } [ %25, %24 ], [ %50, %_ZNSt14_Function_baseD2Ev.exit5 ]
  resume { ptr, i32 } %common.resume.op

24:                                               ; preds = %4
  %25 = landingpad { ptr, i32 }
          cleanup
  call void @_ZN4lean10object_refD2Ev(ptr noundef nonnull align 8 dereferenceable(8) %5) #24
  call void @llvm.lifetime.end.p0(i64 8, ptr nonnull %5) #24
  br label %common.resume

_ZN4lean4nameC2EPKc.exit:                         ; preds = %10, %17, %19, %20
  call void @llvm.lifetime.end.p0(i64 8, ptr nonnull %5) #24
  call void @llvm.lifetime.start.p0(i64 32, ptr nonnull %9) #24
  %26 = getelementptr inbounds nuw i8, ptr %9, i64 16
  %27 = getelementptr inbounds nuw i8, ptr %9, i64 24
  store ptr %6, ptr %9, align 8, !tbaa !45
  %.sroa.5.0..sroa_idx = getelementptr inbounds nuw i8, ptr %9, i64 8
  store ptr %7, ptr %.sroa.5.0..sroa_idx, align 8, !tbaa !89
  store ptr @"_ZNSt17_Function_handlerIFjRN4lean2ir11interpreterEEZNS1_8run_mainERKNS0_16elab_environmentERKNS0_7optionsEiPPcE3$_0E9_M_invokeERKSt9_Any_dataS3_", ptr %27, align 8, !tbaa !91
  store ptr @"_ZNSt17_Function_handlerIFjRN4lean2ir11interpreterEEZNS1_8run_mainERKNS0_16elab_environmentERKNS0_7optionsEiPPcE3$_0E10_M_managerERSt9_Any_dataRKSF_St18_Manager_operation", ptr %26, align 8, !tbaa !52
  %28 = invoke noundef i32 @_ZN4lean2ir11interpreter16with_interpreterIjEET_RKNS_16elab_environmentERKNS_7optionsERKNS_4nameERKSt8functionIFS3_RS1_EE(ptr noundef nonnull align 8 dereferenceable(8) %0, ptr noundef nonnull align 8 dereferenceable(8) %1, ptr noundef nonnull align 8 dereferenceable(8) %8, ptr noundef nonnull align 8 dereferenceable(32) %9)
          to label %29 unwind label %49

29:                                               ; preds = %_ZN4lean4nameC2EPKc.exit
  %30 = load ptr, ptr %26, align 8, !tbaa !52
  %.not.i = icmp eq ptr %30, null
  br i1 %.not.i, label %_ZNSt14_Function_baseD2Ev.exit, label %31

31:                                               ; preds = %29
  %32 = invoke noundef zeroext i1 %30(ptr noundef nonnull align 8 dereferenceable(32) %9, ptr noundef nonnull align 8 dereferenceable(32) %9, i32 noundef 3)
          to label %_ZNSt14_Function_baseD2Ev.exit unwind label %33

33:                                               ; preds = %31
  %34 = landingpad { ptr, i32 }
          catch ptr null
  %35 = extractvalue { ptr, i32 } %34, 0
  call void @__clang_call_terminate(ptr %35) #26
  unreachable

_ZNSt14_Function_baseD2Ev.exit:                   ; preds = %29, %31
  call void @llvm.lifetime.end.p0(i64 32, ptr nonnull %9) #24
  %36 = load ptr, ptr %8, align 8, !tbaa !6
  %37 = ptrtoint ptr %36 to i64
  %38 = and i64 %37, 1
  %.not.i.i = icmp eq i64 %38, 0
  br i1 %.not.i.i, label %39, label %_ZN4lean10object_refD2Ev.exit

39:                                               ; preds = %_ZNSt14_Function_baseD2Ev.exit
  %40 = load i32, ptr %36, align 4, !tbaa !12
  %41 = icmp sgt i32 %40, 1
  br i1 %41, label %42, label %44, !prof !15

42:                                               ; preds = %39
  %43 = add nsw i32 %40, -1
  store i32 %43, ptr %36, align 4, !tbaa !12
  br label %_ZN4lean10object_refD2Ev.exit

44:                                               ; preds = %39
  %.not.i.i.i3 = icmp eq i32 %40, 0
  br i1 %.not.i.i.i3, label %_ZN4lean10object_refD2Ev.exit, label %45

45:                                               ; preds = %44
  invoke void @lean_dec_ref_cold(ptr noundef nonnull %36)
          to label %_ZN4lean10object_refD2Ev.exit unwind label %46

46:                                               ; preds = %45
  %47 = landingpad { ptr, i32 }
          catch ptr null
  %48 = extractvalue { ptr, i32 } %47, 0
  call void @__clang_call_terminate(ptr %48) #26
  unreachable

_ZN4lean10object_refD2Ev.exit:                    ; preds = %_ZNSt14_Function_baseD2Ev.exit, %42, %44, %45
  call void @llvm.lifetime.end.p0(i64 8, ptr nonnull %8) #24
  ret i32 %28

49:                                               ; preds = %_ZN4lean4nameC2EPKc.exit
  %50 = landingpad { ptr, i32 }
          cleanup
  %51 = load ptr, ptr %26, align 8, !tbaa !52
  %.not.i4 = icmp eq ptr %51, null
  br i1 %.not.i4, label %_ZNSt14_Function_baseD2Ev.exit5, label %52

52:                                               ; preds = %49
  %53 = invoke noundef zeroext i1 %51(ptr noundef nonnull align 8 dereferenceable(32) %9, ptr noundef nonnull align 8 dereferenceable(32) %9, i32 noundef 3)
          to label %_ZNSt14_Function_baseD2Ev.exit5 unwind label %54

54:                                               ; preds = %52
  %55 = landingpad { ptr, i32 }
          catch ptr null
  %56 = extractvalue { ptr, i32 } %55, 0
  call void @__clang_call_terminate(ptr %56) #26
  unreachable

_ZNSt14_Function_baseD2Ev.exit5:                  ; preds = %49, %52
  call void @llvm.lifetime.end.p0(i64 32, ptr nonnull %9) #24
  call void @_ZN4lean10object_refD2Ev(ptr noundef nonnull align 8 dereferenceable(8) %8) #24
  call void @llvm.lifetime.end.p0(i64 8, ptr nonnull %8) #24
  br label %common.resume
}